target datalayout = "e-m:e-p270:32:32-p271:32:32-p272:64:64-i64:64-i128:128-f80:128-n8:16:32:64-S128"
target triple = "x86_64-pc-linux-gnu"

; Function Attrs: alwaysinline nounwind willreturn memory(none) uwtable
define internal zeroext i8 @av_clip_uint8_c(i32 noundef %0) #5 {
  %2 = alloca i8, align 1
  %3 = alloca i32, align 4
  store i32 %0, ptr %3, align 4, !tbaa !4
  %4 = load i32, ptr %3, align 4, !tbaa !4
  %5 = and i32 %4, -256
  %6 = icmp ne i32 %5, 0
  br i1 %6, label %7, label %12

7:                                                ; preds = %1
  %8 = load i32, ptr %3, align 4, !tbaa !4
  %9 = xor i32 %8, -1
  %10 = ashr i32 %9, 31
  %11 = trunc i32 %10 to i8
  store i8 %11, ptr %2, align 1
  br label %15

12:                                               ; preds = %1
  %13 = load i32, ptr %3, align 4, !tbaa !4
  %14 = trunc i32 %13 to i8
  store i8 %14, ptr %2, align 1
  br label %15

15:                                               ; preds = %12, %7
  %16 = load i8, ptr %2, align 1
  ret i8 %16
}

; Function Attrs: nounwind uwtable
define internal void @conv_AV_SAMPLE_FMT_DBL_to_AV_SAMPLE_FMT_U8(ptr noundef %0, ptr noundef %1, i32 noundef %2, i32 noundef %3, ptr noundef %4) #0 {
  %6 = alloca ptr, align 8
  %7 = alloca ptr, align 8
  %8 = alloca i32, align 4
  %9 = alloca i32, align 4
  %10 = alloca ptr, align 8
  %11 = alloca ptr, align 8
  store ptr %0, ptr %6, align 8, !tbaa !22
  store ptr %1, ptr %7, align 8, !tbaa !22
  store i32 %2, ptr %8, align 4, !tbaa !4
  store i32 %3, ptr %9, align 4, !tbaa !4
  store ptr %4, ptr %10, align 8, !tbaa !22
  call void @llvm.lifetime.start.p0(i64 8, ptr %11) #8
  %12 = load ptr, ptr %10, align 8, !tbaa !22
  %13 = load i32, ptr %9, align 4, !tbaa !4
  %14 = mul nsw i32 3, %13
  %15 = sext i32 %14 to i64
  %16 = sub i64 0, %15
  %17 = getelementptr inbounds i8, ptr %12, i64 %16
  store ptr %17, ptr %11, align 8, !tbaa !22
  br label %18

18:                                               ; preds = %22, %5
  %19 = load ptr, ptr %6, align 8, !tbaa !22
  %20 = load ptr, ptr %11, align 8, !tbaa !22
  %21 = icmp ult ptr %19, %20
  br i1 %21, label %22, label %87

22:                                               ; preds = %18
  %23 = load ptr, ptr %7, align 8, !tbaa !22
  %24 = load double, ptr %23, align 8, !tbaa !52
  %25 = fmul nsz double %24, 1.280000e+02
  %26 = call i64 @llvm.lrint.i64.f64(double %25)
  %27 = add nsw i64 %26, 128
  %28 = trunc i64 %27 to i32
  %29 = call zeroext i8 @av_clip_uint8_c(i32 noundef %28) #10
  %30 = load ptr, ptr %6, align 8, !tbaa !22
  store i8 %29, ptr %30, align 1, !tbaa !39
  %31 = load i32, ptr %8, align 4, !tbaa !4
  %32 = load ptr, ptr %7, align 8, !tbaa !22
  %33 = sext i32 %31 to i64
  %34 = getelementptr inbounds i8, ptr %32, i64 %33
  store ptr %34, ptr %7, align 8, !tbaa !22
  %35 = load i32, ptr %9, align 4, !tbaa !4
  %36 = load ptr, ptr %6, align 8, !tbaa !22
  %37 = sext i32 %35 to i64
  %38 = getelementptr inbounds i8, ptr %36, i64 %37
  store ptr %38, ptr %6, align 8, !tbaa !22
  %39 = load ptr, ptr %7, align 8, !tbaa !22
  %40 = load double, ptr %39, align 8, !tbaa !52
  %41 = fmul nsz double %40, 1.280000e+02
  %42 = call i64 @llvm.lrint.i64.f64(double %41)
  %43 = add nsw i64 %42, 128
  %44 = trunc i64 %43 to i32
  %45 = call zeroext i8 @av_clip_uint8_c(i32 noundef %44) #10
  %46 = load ptr, ptr %6, align 8, !tbaa !22
  store i8 %45, ptr %46, align 1, !tbaa !39
  %47 = load i32, ptr %8, align 4, !tbaa !4
  %48 = load ptr, ptr %7, align 8, !tbaa !22
  %49 = sext i32 %47 to i64
  %50 = getelementptr inbounds i8, ptr %48, i64 %49
  store ptr %50, ptr %7, align 8, !tbaa !22
  %51 = load i32, ptr %9, align 4, !tbaa !4
  %52 = load ptr, ptr %6, align 8, !tbaa !22
  %53 = sext i32 %51 to i64
  %54 = getelementptr inbounds i8, ptr %52, i64 %53
  store ptr %54, ptr %6, align 8, !tbaa !22
  %55 = load ptr, ptr %7, align 8, !tbaa !22
  %56 = load double, ptr %55, align 8, !tbaa !52
  %57 = fmul nsz double %56, 1.280000e+02
  %58 = call i64 @llvm.lrint.i64.f64(double %57)
  %59 = add nsw i64 %58, 128
  %60 = trunc i64 %59 to i32
  %61 = call zeroext i8 @av_clip_uint8_c(i32 noundef %60) #10
  %62 = load ptr, ptr %6, align 8, !tbaa !22
  store i8 %61, ptr %62, align 1, !tbaa !39
  %63 = load i32, ptr %8, align 4, !tbaa !4
  %64 = load ptr, ptr %7, align 8, !tbaa !22
  %65 = sext i32 %63 to i64
  %66 = getelementptr inbounds i8, ptr %64, i64 %65
  store ptr %66, ptr %7, align 8, !tbaa !22
  %67 = load i32, ptr %9, align 4, !tbaa !4
  %68 = load ptr, ptr %6, align 8, !tbaa !22
  %69 = sext i32 %67 to i64
  %70 = getelementptr inbounds i8, ptr %68, i64 %69
  store ptr %70, ptr %6, align 8, !tbaa !22
  %71 = load ptr, ptr %7, align 8, !tbaa !22
  %72 = load double, ptr %71, align 8, !tbaa !52
  %73 = fmul nsz double %72, 1.280000e+02
  %74 = call i64 @llvm.lrint.i64.f64(double %73)
  %75 = add nsw i64 %74, 128
  %76 = trunc i64 %75 to i32
  %77 = call zeroext i8 @av_clip_uint8_c(i32 noundef %76) #10
  %78 = load ptr, ptr %6, align 8, !tbaa !22
  store i8 %77, ptr %78, align 1, !tbaa !39
  %79 = load i32, ptr %8, align 4, !tbaa !4
  %80 = load ptr, ptr %7, align 8, !tbaa !22
  %81 = sext i32 %79 to i64
  %82 = getelementptr inbounds i8, ptr %80, i64 %81
  store ptr %82, ptr %7, align 8, !tbaa !22
  %83 = load i32, ptr %9, align 4, !tbaa !4
  %84 = load ptr, ptr %6, align 8, !tbaa !22
  %85 = sext i32 %83 to i64
  %86 = getelementptr inbounds i8, ptr %84, i64 %85
  store ptr %86, ptr %6, align 8, !tbaa !22
  br label %18, !llvm.loop !96

87:                                               ; preds = %18
  br label %88

88:                                               ; preds = %92, %87
  %89 = load ptr, ptr %6, align 8, !tbaa !22
  %90 = load ptr, ptr %10, align 8, !tbaa !22
  %91 = icmp ult ptr %89, %90
  br i1 %91, label %92, label %109

92:                                               ; preds = %88
  %93 = load ptr, ptr %7, align 8, !tbaa !22
  %94 = load double, ptr %93, align 8, !tbaa !52
  %95 = fmul nsz double %94, 1.280000e+02
  %96 = call i64 @llvm.lrint.i64.f64(double %95)
  %97 = add nsw i64 %96, 128
  %98 = trunc i64 %97 to i32
  %99 = call zeroext i8 @av_clip_uint8_c(i32 noundef %98) #10
  %100 = load ptr, ptr %6, align 8, !tbaa !22
  store i8 %99, ptr %100, align 1, !tbaa !39
  %101 = load i32, ptr %8, align 4, !tbaa !4
  %102 = load ptr, ptr %7, align 8, !tbaa !22
  %103 = sext i32 %101 to i64
  %104 = getelementptr inbounds i8, ptr %102, i64 %103
  store ptr %104, ptr %7, align 8, !tbaa !22
  %105 = load i32, ptr %9, align 4, !tbaa !4
  %106 = load ptr, ptr %6, align 8, !tbaa !22
  %107 = sext i32 %105 to i64
  %108 = getelementptr inbounds i8, ptr %106, i64 %107
  store ptr %108, ptr %6, align 8, !tbaa !22
  br label %88, !llvm.loop !97

109:                                              ; preds = %88
  call void @llvm.lifetime.end.p0(i64 8, ptr %11) #8
  ret void
}